; Function Attrs: nounwind uwtable
define hidden void @zif_libxml_get_external_entity_loader(ptr nocapture noundef readonly %0, ptr noundef %1) #0 {
  %3 = getelementptr inbounds i8, ptr %0, i64 44
  %4 = load i32, ptr %3, align 4
  %.not = icmp eq i32 %4, 0
  br i1 %.not, label %6, label %5

5:                                                ; preds = %2
  tail call void @zend_wrong_parameters_none_error() #17
  br label %11

6:                                                ; preds = %2
  %7 = load ptr, ptr getelementptr inbounds (%struct._zend_libxml_globals, ptr @libxml_globals, i64 0, i32 3), align 8
  %.not3 = icmp eq ptr %7, null
  br i1 %.not3, label %9, label %8

8:                                                ; preds = %6
  tail call void @zend_get_callable_zval_from_fcc(ptr noundef nonnull getelementptr inbounds (%struct._zend_libxml_globals, ptr @libxml_globals, i64 0, i32 3), ptr noundef %1) #17
  br label %11

9:                                                ; preds = %6
  %10 = getelementptr inbounds i8, ptr %1, i64 8
  store i32 1, ptr %10, align 8
  br label %11

11:                                               ; preds = %9, %8, %5
  ret void
}